target datalayout = "e-m:e-p270:32:32-p271:32:32-p272:64:64-i64:64-i128:128-f80:128-n8:16:32:64-S128"
target triple = "x86_64-pc-linux-gnu"

%"class.icu_77::UnicodeString" = type { %"class.icu_77::Replaceable", %"union.icu_77::UnicodeString::StackBufferOrFields" }
%"class.icu_77::Replaceable" = type { %"class.icu_77::UObject" }
%"class.icu_77::UObject" = type { ptr }
%"union.icu_77::UnicodeString::StackBufferOrFields" = type { %struct.anon.1, [32 x i8] }
%struct.anon.1 = type { i16, i32, i32, ptr }
%"class.std::basic_string_view" = type { i64, ptr }

@.str.3 = private unnamed_addr constant [12 x i16] [i16 60, i16 82, i16 101, i16 113, i16 78, i16 117, i16 109, i16 98, i16 101, i16 114, i16 62, i16 0], align 2
@_ZTVN6icu_777UObjectE = available_externally unnamed_addr constant { [5 x ptr] } { [5 x ptr] [ptr null, ptr @_ZTIN6icu_777UObjectE, ptr @_ZN6icu_777UObjectD1Ev, ptr @_ZN6icu_777UObjectD0Ev, ptr @_ZNK6icu_777UObject17getDynamicClassIDEv] }, align 8

; Function Attrs: mustprogress nounwind uwtable
define linkonce_odr noundef zeroext i1 @_ZNSt11char_traitsIDsE2eqERKDsS2_(ptr noundef nonnull align 2 dereferenceable(2) %0, ptr noundef nonnull align 2 dereferenceable(2) %1) #2 comdat align 2 {
  %3 = alloca ptr, align 8
  %4 = alloca ptr, align 8
  store ptr %0, ptr %3, align 8, !tbaa !23
  store ptr %1, ptr %4, align 8, !tbaa !23
  %5 = load ptr, ptr %3, align 8, !tbaa !23
  %6 = load i16, ptr %5, align 2, !tbaa !29
  %7 = zext i16 %6 to i32
  %8 = load ptr, ptr %4, align 8, !tbaa !23
  %9 = load i16, ptr %8, align 2, !tbaa !29
  %10 = zext i16 %9 to i32
  %11 = icmp eq i32 %7, %10
  ret i1 %11
}

; Function Attrs: noinline noreturn nounwind uwtable
define linkonce_odr hidden void @__clang_call_terminate(ptr noundef %0) #9 comdat {
  %2 = call ptr @__cxa_begin_catch(ptr %0) #10
  call void @_ZSt9terminatev() #11
  unreachable
}

; Function Attrs: mustprogress nounwind uwtable
define linkonce_odr noundef i64 @_ZNSt11char_traitsIDsE6lengthEPKDs(ptr noundef %0) #2 comdat align 2 {
  %2 = alloca ptr, align 8
  %3 = alloca i64, align 8
  %4 = alloca i16, align 2
  store ptr %0, ptr %2, align 8, !tbaa !23
  call void @llvm.lifetime.start.p0(i64 8, ptr %3) #10
  store i64 0, ptr %3, align 8, !tbaa !59
  br label %5

5:                                                ; preds = %11, %1
  %6 = load ptr, ptr %2, align 8, !tbaa !23
  %7 = load i64, ptr %3, align 8, !tbaa !59
  %8 = getelementptr inbounds nuw i16, ptr %6, i64 %7
  call void @llvm.lifetime.start.p0(i64 2, ptr %4) #10
  store i16 0, ptr %4, align 2, !tbaa !29
  %9 = call noundef zeroext i1 @_ZNSt11char_traitsIDsE2eqERKDsS2_(ptr noundef nonnull align 2 dereferenceable(2) %8, ptr noundef nonnull align 2 dereferenceable(2) %4) #10
  %10 = xor i1 %9, true
  call void @llvm.lifetime.end.p0(i64 2, ptr %4) #10
  br i1 %10, label %11, label %14

11:                                               ; preds = %5
  %12 = load i64, ptr %3, align 8, !tbaa !59
  %13 = add i64 %12, 1
  store i64 %13, ptr %3, align 8, !tbaa !59
  br label %5, !llvm.loop !66

14:                                               ; preds = %5
  %15 = load i64, ptr %3, align 8, !tbaa !59
  call void @llvm.lifetime.end.p0(i64 8, ptr %3) #10
  ret i64 %15
}

; Function Attrs: inlinehint mustprogress nounwind uwtable
define linkonce_odr { i64, ptr } @_ZN6icu_778internal15toU16StringViewESt17basic_string_viewIDsSt11char_traitsIDsEE(i64 %0, ptr %1) #1 comdat {
  %3 = alloca %"class.std::basic_string_view", align 8
  %4 = alloca %"class.std::basic_string_view", align 8
  %5 = getelementptr inbounds nuw { i64, ptr }, ptr %4, i32 0, i32 0
  store i64 %0, ptr %5, align 8
  %6 = getelementptr inbounds nuw { i64, ptr }, ptr %4, i32 0, i32 1
  store ptr %1, ptr %6, align 8
  call void @llvm.memcpy.p0.p0.i64(ptr align 8 %3, ptr align 8 %4, i64 16, i1 false), !tbaa.struct !58
  %7 = load { i64, ptr }, ptr %3, align 8
  ret { i64, ptr } %7
}

; Function Attrs: mustprogress nounwind uwtable
define linkonce_odr void @_ZNSt17basic_string_viewIDsSt11char_traitsIDsEEC2EPKDs(ptr noundef nonnull align 8 dereferenceable(16) %0, ptr noundef nonnull %1) unnamed_addr #2 comdat align 2 personality ptr @__gxx_personality_v0 {
  %3 = alloca ptr, align 8
  %4 = alloca ptr, align 8
  store ptr %0, ptr %3, align 8, !tbaa !61
  store ptr %1, ptr %4, align 8, !tbaa !23
  %5 = load ptr, ptr %3, align 8
  %6 = getelementptr inbounds nuw %"class.std::basic_string_view", ptr %5, i32 0, i32 0
  %7 = load ptr, ptr %4, align 8, !tbaa !23
  %8 = invoke noundef i64 @_ZNSt11char_traitsIDsE6lengthEPKDs(ptr noundef %7)
          to label %9 unwind label %12

9:                                                ; preds = %2
  store i64 %8, ptr %6, align 8, !tbaa !63
  %10 = getelementptr inbounds nuw %"class.std::basic_string_view", ptr %5, i32 0, i32 1
  %11 = load ptr, ptr %4, align 8, !tbaa !23
  store ptr %11, ptr %10, align 8, !tbaa !65
  ret void

12:                                               ; preds = %2
  %13 = landingpad { ptr, i32 }
          catch ptr null
  %14 = extractvalue { ptr, i32 } %13, 0
  call void @__clang_call_terminate(ptr %14) #11
  unreachable
}

; Function Attrs: inlinehint mustprogress nounwind uwtable
define linkonce_odr void @_ZN6icu_777UObjectC2Ev(ptr noundef nonnull align 8 dereferenceable(8) %0) unnamed_addr #1 comdat align 2 {
  %2 = alloca ptr, align 8
  store ptr %0, ptr %2, align 8, !tbaa !56
  %3 = load ptr, ptr %2, align 8
  store ptr getelementptr inbounds inrange(-16, 24) ({ [5 x ptr] }, ptr @_ZTVN6icu_777UObjectE, i32 0, i32 0, i32 2), ptr %3, align 8, !tbaa !25
  ret void
}

; Function Attrs: inlinehint mustprogress nounwind uwtable
define linkonce_odr { i64, ptr } @_ZN6icu_778internal23toU16StringViewNullableIA12_DsvEESt17basic_string_viewIDsSt11char_traitsIDsEERKT_(ptr noundef nonnull align 2 dereferenceable(24) %0) #1 comdat {
  %2 = alloca %"class.std::basic_string_view", align 8
  %3 = alloca ptr, align 8
  %4 = alloca %"class.std::basic_string_view", align 8
  store ptr %0, ptr %3, align 8, !tbaa !23
  %5 = load ptr, ptr %3, align 8, !tbaa !23
  %6 = getelementptr inbounds [12 x i16], ptr %5, i64 0, i64 0
  call void @_ZNSt17basic_string_viewIDsSt11char_traitsIDsEEC2EPKDs(ptr noundef nonnull align 8 dereferenceable(16) %4, ptr noundef %6) #10
  %7 = getelementptr inbounds nuw { i64, ptr }, ptr %4, i32 0, i32 0
  %8 = load i64, ptr %7, align 8
  %9 = getelementptr inbounds nuw { i64, ptr }, ptr %4, i32 0, i32 1
  %10 = load ptr, ptr %9, align 8
  %11 = call { i64, ptr } @_ZN6icu_778internal15toU16StringViewESt17basic_string_viewIDsSt11char_traitsIDsEE(i64 %8, ptr %10)
  %12 = getelementptr inbounds nuw { i64, ptr }, ptr %2, i32 0, i32 0
  %13 = extractvalue { i64, ptr } %11, 0
  store i64 %13, ptr %12, align 8
  %14 = getelementptr inbounds nuw { i64, ptr }, ptr %2, i32 0, i32 1
  %15 = extractvalue { i64, ptr } %11, 1
  store ptr %15, ptr %14, align 8
  %16 = load { i64, ptr }, ptr %2, align 8
  ret { i64, ptr } %16
}

; Function Attrs: inlinehint mustprogress nounwind uwtable
define linkonce_odr void @_ZN6icu_7711ReplaceableC2Ev(ptr noundef nonnull align 8 dereferenceable(8) %0) unnamed_addr #1 comdat align 2 {
  %2 = alloca ptr, align 8
  store ptr %0, ptr %2, align 8, !tbaa !54
  %3 = load ptr, ptr %2, align 8
  call void @_ZN6icu_777UObjectC2Ev(ptr noundef nonnull align 8 dereferenceable(8) %3) #10
  store ptr getelementptr inbounds inrange(-16, 88) ({ [13 x ptr] }, ptr @_ZTVN6icu_7711ReplaceableE, i32 0, i32 0, i32 2), ptr %3, align 8, !tbaa !25
  ret void
}

; Function Attrs: mustprogress uwtable
define linkonce_odr void @_ZN6icu_7713UnicodeStringC2IA12_DsvEERKT_(ptr noundef nonnull align 8 dereferenceable(64) %0, ptr noundef nonnull align 2 dereferenceable(24) %1) unnamed_addr #0 comdat align 2 personality ptr @__gxx_personality_v0 {
  %3 = alloca ptr, align 8
  %4 = alloca ptr, align 8
  %5 = alloca %"class.std::basic_string_view", align 8
  %6 = alloca ptr, align 8
  %7 = alloca i32, align 4
  store ptr %0, ptr %3, align 8, !tbaa !20
  store ptr %1, ptr %4, align 8, !tbaa !23
  %8 = load ptr, ptr %3, align 8
  call void @_ZN6icu_7711ReplaceableC2Ev(ptr noundef nonnull align 8 dereferenceable(8) %8)
  store ptr getelementptr inbounds inrange(-16, 88) ({ [13 x ptr] }, ptr @_ZTVN6icu_7713UnicodeStringE, i32 0, i32 0, i32 2), ptr %8, align 8, !tbaa !25
  %9 = getelementptr inbounds nuw %"class.icu_77::UnicodeString", ptr %8, i32 0, i32 1
  %10 = getelementptr inbounds nuw %struct.anon.1, ptr %9, i32 0, i32 0
  store i16 2, ptr %10, align 8, !tbaa !22
  %11 = load ptr, ptr %4, align 8, !tbaa !23
  %12 = invoke { i64, ptr } @_ZN6icu_778internal23toU16StringViewNullableIA12_DsvEESt17basic_string_viewIDsSt11char_traitsIDsEERKT_(ptr noundef nonnull align 2 dereferenceable(24) %11)
          to label %13 unwind label %24

13:                                               ; preds = %2
  %14 = getelementptr inbounds nuw { i64, ptr }, ptr %5, i32 0, i32 0
  %15 = extractvalue { i64, ptr } %12, 0
  store i64 %15, ptr %14, align 8
  %16 = getelementptr inbounds nuw { i64, ptr }, ptr %5, i32 0, i32 1
  %17 = extractvalue { i64, ptr } %12, 1
  store ptr %17, ptr %16, align 8
  %18 = getelementptr inbounds nuw { i64, ptr }, ptr %5, i32 0, i32 0
  %19 = load i64, ptr %18, align 8
  %20 = getelementptr inbounds nuw { i64, ptr }, ptr %5, i32 0, i32 1
  %21 = load ptr, ptr %20, align 8
  %22 = invoke noundef nonnull align 8 dereferenceable(64) ptr @_ZN6icu_7713UnicodeString8doAppendESt17basic_string_viewIDsSt11char_traitsIDsEE(ptr noundef nonnull align 8 dereferenceable(64) %8, i64 %19, ptr %21)
          to label %23 unwind label %24

23:                                               ; preds = %13
  ret void

24:                                               ; preds = %13, %2
  %25 = landingpad { ptr, i32 }
          cleanup
  %26 = extractvalue { ptr, i32 } %25, 0
  store ptr %26, ptr %6, align 8
  %27 = extractvalue { ptr, i32 } %25, 1
  store i32 %27, ptr %7, align 4
  call void @_ZN6icu_7711ReplaceableD2Ev(ptr noundef nonnull align 8 dereferenceable(8) %8) #10
  br label %28

28:                                               ; preds = %24
  %29 = load ptr, ptr %6, align 8
  %30 = load i32, ptr %7, align 4
  %31 = insertvalue { ptr, i32 } poison, ptr %29, 0
  %32 = insertvalue { ptr, i32 } %31, i32 %30, 1
  resume { ptr, i32 } %32
}

; Function Attrs: mustprogress uwtable
define void @_ZNK6icu_778numparse4impl22RequireNumberValidator8toStringEv(ptr dead_on_unwind noalias writable sret(%"class.icu_77::UnicodeString") align 8 %0, ptr noundef nonnull align 8 dereferenceable(8) %1) unnamed_addr #0 align 2 {
  %3 = alloca ptr, align 8
  %4 = alloca ptr, align 8
  store ptr %0, ptr %3, align 8
  store ptr %1, ptr %4, align 8, !tbaa !42
  call void @_ZN6icu_7713UnicodeStringC2IA12_DsvEERKT_(ptr noundef nonnull align 8 dereferenceable(64) %0, ptr noundef nonnull align 2 dereferenceable(24) @.str.3)
  ret void
}